target datalayout = "e-m:e-p270:32:32-p271:32:32-p272:64:64-i64:64-i128:128-f80:128-n8:16:32:64-S128"
target triple = "x86_64-pc-linux-gnu"

@.str = private unnamed_addr constant [30 x i8] c"../openssl/crypto/bn/bn_exp.c\00", align 1
@__func__.BN_exp = private unnamed_addr constant [7 x i8] c"BN_exp\00", align 1

; Function Attrs: nounwind uwtable
define i32 @BN_exp(ptr noundef %0, ptr noundef %1, ptr noundef %2, ptr noundef %3) #0 {
  %5 = alloca i32, align 4
  %6 = alloca ptr, align 8
  %7 = alloca ptr, align 8
  %8 = alloca ptr, align 8
  %9 = alloca ptr, align 8
  %10 = alloca i32, align 4
  %11 = alloca i32, align 4
  %12 = alloca i32, align 4
  %13 = alloca ptr, align 8
  %14 = alloca ptr, align 8
  %15 = alloca i32, align 4
  store ptr %0, ptr %6, align 8, !tbaa !3
  store ptr %1, ptr %7, align 8, !tbaa !3
  store ptr %2, ptr %8, align 8, !tbaa !3
  store ptr %3, ptr %9, align 8, !tbaa !8
  call void @llvm.lifetime.start.p0(i64 4, ptr %10) #5
  call void @llvm.lifetime.start.p0(i64 4, ptr %11) #5
  call void @llvm.lifetime.start.p0(i64 4, ptr %12) #5
  store i32 0, ptr %12, align 4, !tbaa !10
  call void @llvm.lifetime.start.p0(i64 8, ptr %13) #5
  call void @llvm.lifetime.start.p0(i64 8, ptr %14) #5
  %16 = load ptr, ptr %8, align 8, !tbaa !3
  %17 = call i32 @BN_get_flags(ptr noundef %16, i32 noundef 4)
  %18 = icmp ne i32 %17, 0
  br i1 %18, label %23, label %19

19:                                               ; preds = %4
  %20 = load ptr, ptr %7, align 8, !tbaa !3
  %21 = call i32 @BN_get_flags(ptr noundef %20, i32 noundef 4)
  %22 = icmp ne i32 %21, 0
  br i1 %22, label %23, label %24

23:                                               ; preds = %19, %4
  call void @ERR_new()
  call void @ERR_set_debug(ptr noundef @.str, i32 noundef 57, ptr noundef @__func__.BN_exp)
  call void (i32, i32, ptr, ...) @ERR_set_error(i32 noundef 3, i32 noundef 786689, ptr noundef null)
  store i32 0, ptr %5, align 4
  store i32 1, ptr %15, align 4
  br label %117

24:                                               ; preds = %19
  %25 = load ptr, ptr %9, align 8, !tbaa !8
  call void @BN_CTX_start(ptr noundef %25)
  %26 = load ptr, ptr %6, align 8, !tbaa !3
  %27 = load ptr, ptr %7, align 8, !tbaa !3
  %28 = icmp eq ptr %26, %27
  br i1 %28, label %33, label %29

29:                                               ; preds = %24
  %30 = load ptr, ptr %6, align 8, !tbaa !3
  %31 = load ptr, ptr %8, align 8, !tbaa !3
  %32 = icmp eq ptr %30, %31
  br i1 %32, label %33, label %36

33:                                               ; preds = %29, %24
  %34 = load ptr, ptr %9, align 8, !tbaa !8
  %35 = call ptr @BN_CTX_get(ptr noundef %34)
  br label %38

36:                                               ; preds = %29
  %37 = load ptr, ptr %6, align 8, !tbaa !3
  br label %38

38:                                               ; preds = %36, %33
  %39 = phi ptr [ %35, %33 ], [ %37, %36 ]
  store ptr %39, ptr %14, align 8, !tbaa !3
  %40 = load ptr, ptr %9, align 8, !tbaa !8
  %41 = call ptr @BN_CTX_get(ptr noundef %40)
  store ptr %41, ptr %13, align 8, !tbaa !3
  %42 = load ptr, ptr %14, align 8, !tbaa !3
  %43 = icmp eq ptr %42, null
  br i1 %43, label %47, label %44

44:                                               ; preds = %38
  %45 = load ptr, ptr %13, align 8, !tbaa !3
  %46 = icmp eq ptr %45, null
  br i1 %46, label %47, label %48

47:                                               ; preds = %44, %38
  br label %114

48:                                               ; preds = %44
  %49 = load ptr, ptr %13, align 8, !tbaa !3
  %50 = load ptr, ptr %7, align 8, !tbaa !3
  %51 = call ptr @BN_copy(ptr noundef %49, ptr noundef %50)
  %52 = icmp eq ptr %51, null
  br i1 %52, label %53, label %54

53:                                               ; preds = %48
  br label %114

54:                                               ; preds = %48
  %55 = load ptr, ptr %8, align 8, !tbaa !3
  %56 = call i32 @BN_num_bits(ptr noundef %55)
  store i32 %56, ptr %11, align 4, !tbaa !10
  %57 = load ptr, ptr %8, align 8, !tbaa !3
  %58 = call i32 @BN_is_odd(ptr noundef %57)
  %59 = icmp ne i32 %58, 0
  br i1 %59, label %60, label %67

60:                                               ; preds = %54
  %61 = load ptr, ptr %14, align 8, !tbaa !3
  %62 = load ptr, ptr %7, align 8, !tbaa !3
  %63 = call ptr @BN_copy(ptr noundef %61, ptr noundef %62)
  %64 = icmp eq ptr %63, null
  br i1 %64, label %65, label %66

65:                                               ; preds = %60
  br label %114

66:                                               ; preds = %60
  br label %73

67:                                               ; preds = %54
  %68 = load ptr, ptr %14, align 8, !tbaa !3
  %69 = call i32 @BN_set_word(ptr noundef %68, i64 noundef 1)
  %70 = icmp ne i32 %69, 0
  br i1 %70, label %72, label %71

71:                                               ; preds = %67
  br label %114

72:                                               ; preds = %67
  br label %73

73:                                               ; preds = %72, %66
  store i32 1, ptr %10, align 4, !tbaa !10
  br label %74

74:                                               ; preds = %100, %73
  %75 = load i32, ptr %10, align 4, !tbaa !10
  %76 = load i32, ptr %11, align 4, !tbaa !10
  %77 = icmp slt i32 %75, %76
  br i1 %77, label %78, label %103

78:                                               ; preds = %74
  %79 = load ptr, ptr %13, align 8, !tbaa !3
  %80 = load ptr, ptr %13, align 8, !tbaa !3
  %81 = load ptr, ptr %9, align 8, !tbaa !8
  %82 = call i32 @BN_sqr(ptr noundef %79, ptr noundef %80, ptr noundef %81)
  %83 = icmp ne i32 %82, 0
  br i1 %83, label %85, label %84

84:                                               ; preds = %78
  br label %114

85:                                               ; preds = %78
  %86 = load ptr, ptr %8, align 8, !tbaa !3
  %87 = load i32, ptr %10, align 4, !tbaa !10
  %88 = call i32 @BN_is_bit_set(ptr noundef %86, i32 noundef %87)
  %89 = icmp ne i32 %88, 0
  br i1 %89, label %90, label %99

90:                                               ; preds = %85
  %91 = load ptr, ptr %14, align 8, !tbaa !3
  %92 = load ptr, ptr %14, align 8, !tbaa !3
  %93 = load ptr, ptr %13, align 8, !tbaa !3
  %94 = load ptr, ptr %9, align 8, !tbaa !8
  %95 = call i32 @BN_mul(ptr noundef %91, ptr noundef %92, ptr noundef %93, ptr noundef %94)
  %96 = icmp ne i32 %95, 0
  br i1 %96, label %98, label %97

97:                                               ; preds = %90
  br label %114

98:                                               ; preds = %90
  br label %99

99:                                               ; preds = %98, %85
  br label %100

100:                                              ; preds = %99
  %101 = load i32, ptr %10, align 4, !tbaa !10
  %102 = add nsw i32 %101, 1
  store i32 %102, ptr %10, align 4, !tbaa !10
  br label %74, !llvm.loop !12

103:                                              ; preds = %74
  %104 = load ptr, ptr %6, align 8, !tbaa !3
  %105 = load ptr, ptr %14, align 8, !tbaa !3
  %106 = icmp ne ptr %104, %105
  br i1 %106, label %107, label %113

107:                                              ; preds = %103
  %108 = load ptr, ptr %6, align 8, !tbaa !3
  %109 = load ptr, ptr %14, align 8, !tbaa !3
  %110 = call ptr @BN_copy(ptr noundef %108, ptr noundef %109)
  %111 = icmp eq ptr %110, null
  br i1 %111, label %112, label %113

112:                                              ; preds = %107
  br label %114

113:                                              ; preds = %107, %103
  store i32 1, ptr %12, align 4, !tbaa !10
  br label %114

114:                                              ; preds = %113, %112, %97, %84, %71, %65, %53, %47
  %115 = load ptr, ptr %9, align 8, !tbaa !8
  call void @BN_CTX_end(ptr noundef %115)
  %116 = load i32, ptr %12, align 4, !tbaa !10
  store i32 %116, ptr %5, align 4
  store i32 1, ptr %15, align 4
  br label %117

117:                                              ; preds = %114, %23
  call void @llvm.lifetime.end.p0(i64 8, ptr %14) #5
  call void @llvm.lifetime.end.p0(i64 8, ptr %13) #5
  call void @llvm.lifetime.end.p0(i64 4, ptr %12) #5
  call void @llvm.lifetime.end.p0(i64 4, ptr %11) #5
  call void @llvm.lifetime.end.p0(i64 4, ptr %10) #5
  %118 = load i32, ptr %5, align 4
  ret i32 %118
}