; Function Attrs: nounwind uwtable
define range(i32 0, 2) i32 @BN_exp(ptr noundef %0, ptr noundef %1, ptr noundef %2, ptr noundef %3) local_unnamed_addr #0 {
  %5 = tail call i32 @BN_get_flags(ptr noundef %2, i32 noundef 4) #6
  %.not = icmp eq i32 %5, 0
  br i1 %.not, label %6, label %8

6:                                                ; preds = %4
  %7 = tail call i32 @BN_get_flags(ptr noundef %1, i32 noundef 4) #6
  %.not43 = icmp eq i32 %7, 0
  br i1 %.not43, label %9, label %8

8:                                                ; preds = %6, %4
  tail call void @ERR_new() #6
  tail call void @ERR_set_debug(ptr noundef nonnull @.str, i32 noundef 57, ptr noundef nonnull @__func__.BN_exp) #6
  tail call void (i32, i32, ptr, ...) @ERR_set_error(i32 noundef 3, i32 noundef 786689, ptr noundef null) #6
  br label %43

9:                                                ; preds = %6
  tail call void @BN_CTX_start(ptr noundef %3) #6
  %10 = icmp eq ptr %0, %1
  %11 = icmp eq ptr %0, %2
  %or.cond50 = or i1 %10, %11
  br i1 %or.cond50, label %12, label %14

12:                                               ; preds = %9
  %13 = tail call ptr @BN_CTX_get(ptr noundef %3) #6
  br label %14

14:                                               ; preds = %9, %12
  %15 = phi ptr [ %13, %12 ], [ %0, %9 ]
  %16 = tail call ptr @BN_CTX_get(ptr noundef %3) #6
  %17 = icmp eq ptr %15, null
  %18 = icmp eq ptr %16, null
  %or.cond = select i1 %17, i1 true, i1 %18
  br i1 %or.cond, label %.loopexit, label %19

19:                                               ; preds = %14
  %20 = tail call ptr @BN_copy(ptr noundef nonnull %16, ptr noundef %1) #6
  %21 = icmp eq ptr %20, null
  br i1 %21, label %.loopexit, label %22

22:                                               ; preds = %19
  %23 = tail call i32 @BN_num_bits(ptr noundef %2) #6
  %24 = tail call i32 @BN_is_odd(ptr noundef %2) #6
  %.not44 = icmp eq i32 %24, 0
  br i1 %.not44, label %28, label %25

25:                                               ; preds = %22
  %26 = tail call ptr @BN_copy(ptr noundef nonnull %15, ptr noundef %1) #6
  %27 = icmp eq ptr %26, null
  br i1 %27, label %.loopexit, label %30

28:                                               ; preds = %22
  %29 = tail call i32 @BN_set_word(ptr noundef nonnull %15, i64 noundef 1) #6
  %.not45 = icmp eq i32 %29, 0
  br i1 %.not45, label %.loopexit, label %30

30:                                               ; preds = %28, %25
  %31 = icmp sgt i32 %23, 1
  br i1 %31, label %.lr.ph, label %._crit_edge

.lr.ph:                                           ; preds = %30, %37
  %.03851 = phi i32 [ %38, %37 ], [ 1, %30 ]
  %32 = tail call i32 @BN_sqr(ptr noundef nonnull %16, ptr noundef nonnull %16, ptr noundef %3) #6
  %.not47 = icmp eq i32 %32, 0
  br i1 %.not47, label %.loopexit, label %33

33:                                               ; preds = %.lr.ph
  %34 = tail call i32 @BN_is_bit_set(ptr noundef %2, i32 noundef %.03851) #6
  %.not48 = icmp eq i32 %34, 0
  br i1 %.not48, label %37, label %35

35:                                               ; preds = %33
  %36 = tail call i32 @BN_mul(ptr noundef %15, ptr noundef %15, ptr noundef nonnull %16, ptr noundef %3) #6
  %.not49 = icmp eq i32 %36, 0
  br i1 %.not49, label %.loopexit, label %37

37:                                               ; preds = %33, %35
  %38 = add nuw nsw i32 %.03851, 1
  %exitcond.not = icmp eq i32 %38, %23
  br i1 %exitcond.not, label %._crit_edge, label %.lr.ph, !llvm.loop !3

._crit_edge:                                      ; preds = %37, %30
  %.not46 = icmp eq ptr %0, %15
  br i1 %.not46, label %42, label %39

39:                                               ; preds = %._crit_edge
  %40 = tail call ptr @BN_copy(ptr noundef %0, ptr noundef %15) #6
  %41 = icmp eq ptr %40, null
  br i1 %41, label %.loopexit, label %42

42:                                               ; preds = %39, %._crit_edge
  br label %.loopexit

.loopexit:                                        ; preds = %35, %.lr.ph, %39, %28, %25, %19, %14, %42
  %.039 = phi i32 [ 0, %14 ], [ 0, %19 ], [ 0, %25 ], [ 0, %39 ], [ 1, %42 ], [ 0, %28 ], [ 0, %.lr.ph ], [ 0, %35 ]
  tail call void @BN_CTX_end(ptr noundef %3) #6
  br label %43

43:                                               ; preds = %.loopexit, %8
  %.0 = phi i32 [ 0, %8 ], [ %.039, %.loopexit ]
  ret i32 %.0
}